target datalayout = "e-m:e-p270:32:32-p271:32:32-p272:64:64-i64:64-i128:128-f80:128-n8:16:32:64-S128"
target triple = "x86_64-pc-linux-gnu"

%struct.expert_field = type { i32, i32 }
%struct._packet_info = type { ptr, ptr, i32, i32, %struct.nstime_t, %struct.nstime_t, %struct.nstime_t, i8, ptr, ptr, ptr, ptr, %struct._address, %struct._address, %struct._address, %struct._address, %struct._address, %struct._address, i32, ptr, i8, [3 x i8], %struct.anon, i32, i32, i32, i32, ptr, i8, ptr, ptr, i16, i16, i32, i32, i16, i32, i32, ptr, ptr, ptr, i8, i8, i16, i16, i16, i32, i16, i16, ptr, ptr, ptr, ptr, ptr, i32, i32 }
%struct.nstime_t = type { i64, i32 }
%struct._address = type { i32, i32, ptr, ptr }
%struct.anon = type { i8, [3 x i8] }

@ei_nas_5gs_extraneous_data = internal global %struct.expert_field zeroinitializer, align 4
@ei_nas_5gs_missing_mandatory_element = internal global %struct.expert_field zeroinitializer, align 4
@.str.1664 = private unnamed_addr constant [62 x i8] c"Missing Mandatory element %s%s, rest of dissection is suspect\00", align 1
@.str.1713 = private unnamed_addr constant [24 x i8] c" - Back-off timer value\00", align 1
@.str.1719 = private unnamed_addr constant [13 x i8] c" - ESM cause\00", align 1

; Function Attrs: null_pointer_is_valid sspstrong uwtable
define internal void @nas_5gs_sm_pdu_ses_est_rej(ptr noundef %0, ptr noundef %1, ptr noundef %2, i32 noundef %3, i32 noundef %4) #0 {
  %6 = alloca ptr, align 8
  %7 = alloca ptr, align 8
  %8 = alloca ptr, align 8
  %9 = alloca i32, align 4
  %10 = alloca i32, align 4
  %11 = alloca i32, align 4
  %12 = alloca i32, align 4
  %13 = alloca i32, align 4
  %14 = alloca i32, align 4
  store ptr %0, ptr %6, align 8
  store ptr %1, ptr %7, align 8
  store ptr %2, ptr %8, align 8
  store i32 %3, ptr %9, align 4
  store i32 %4, ptr %10, align 4
  call void @llvm.lifetime.start.p0(i64 4, ptr %11) #11
  call void @llvm.lifetime.start.p0(i64 4, ptr %12) #11
  call void @llvm.lifetime.start.p0(i64 4, ptr %13) #11
  %15 = load i32, ptr %9, align 4
  store i32 %15, ptr %11, align 4
  %16 = load i32, ptr %10, align 4
  store i32 %16, ptr %13, align 4
  %17 = load ptr, ptr %8, align 8
  %18 = getelementptr inbounds nuw %struct._packet_info, ptr %17, i32 0, i32 46
  store i32 1, ptr %18, align 8
  %19 = load i32, ptr %13, align 4
  %20 = icmp sgt i32 %19, 0
  br i1 %20, label %21, label %36

21:                                               ; preds = %5
  %22 = load ptr, ptr %6, align 8
  %23 = load ptr, ptr %7, align 8
  %24 = load ptr, ptr %8, align 8
  %25 = load i32, ptr %11, align 4
  %26 = call zeroext i16 @elem_v(ptr noundef %22, ptr noundef %23, ptr noundef %24, i32 noundef 18, i32 noundef 1, i32 noundef %25, ptr noundef @.str.1719)
  %27 = zext i16 %26 to i32
  store i32 %27, ptr %12, align 4
  %28 = icmp ugt i32 %27, 0
  br i1 %28, label %29, label %36

29:                                               ; preds = %21
  %30 = load i32, ptr %12, align 4
  %31 = load i32, ptr %11, align 4
  %32 = add i32 %31, %30
  store i32 %32, ptr %11, align 4
  %33 = load i32, ptr %12, align 4
  %34 = load i32, ptr %13, align 4
  %35 = sub i32 %34, %33
  store i32 %35, ptr %13, align 4
  br label %43

36:                                               ; preds = %21, %5
  %37 = load ptr, ptr %7, align 8
  %38 = load ptr, ptr %8, align 8
  %39 = load ptr, ptr %6, align 8
  %40 = load i32, ptr %11, align 4
  %41 = call ptr @get_gsm_a_msg_string(i32 noundef 18, i32 noundef 1)
  %42 = call ptr (ptr, ptr, ptr, ptr, i32, i32, ptr, ...) @proto_tree_add_expert_format(ptr noundef %37, ptr noundef %38, ptr noundef @ei_nas_5gs_missing_mandatory_element, ptr noundef %39, i32 noundef %40, i32 noundef 0, ptr noundef @.str.1664, ptr noundef %41, ptr noundef @.str.1719)
  br label %43

43:                                               ; preds = %36, %29
  %44 = load i32, ptr %13, align 4
  %45 = icmp sle i32 %44, 0
  br i1 %45, label %46, label %47

46:                                               ; preds = %43
  store i32 1, ptr %14, align 4
  br label %198

47:                                               ; preds = %43
  %48 = load ptr, ptr %6, align 8
  %49 = load ptr, ptr %7, align 8
  %50 = load ptr, ptr %8, align 8
  %51 = load i32, ptr %11, align 4
  %52 = load i32, ptr %13, align 4
  %53 = call zeroext i16 @elem_tlv(ptr noundef %48, ptr noundef %49, ptr noundef %50, i8 noundef zeroext 55, i32 noundef 5, i32 noundef 71, i32 noundef %51, i32 noundef %52, ptr noundef @.str.1713)
  %54 = zext i16 %53 to i32
  store i32 %54, ptr %12, align 4
  %55 = icmp ugt i32 %54, 0
  br i1 %55, label %56, label %63

56:                                               ; preds = %47
  %57 = load i32, ptr %12, align 4
  %58 = load i32, ptr %11, align 4
  %59 = add i32 %58, %57
  store i32 %59, ptr %11, align 4
  %60 = load i32, ptr %12, align 4
  %61 = load i32, ptr %13, align 4
  %62 = sub i32 %61, %60
  store i32 %62, ptr %13, align 4
  br label %63

63:                                               ; preds = %56, %47
  %64 = load i32, ptr %13, align 4
  %65 = icmp sle i32 %64, 0
  br i1 %65, label %66, label %67

66:                                               ; preds = %63
  store i32 1, ptr %14, align 4
  br label %198

67:                                               ; preds = %63
  %68 = load ptr, ptr %6, align 8
  %69 = load ptr, ptr %7, align 8
  %70 = load ptr, ptr %8, align 8
  %71 = load i32, ptr %11, align 4
  %72 = call zeroext i16 @elem_tv_short(ptr noundef %68, ptr noundef %69, ptr noundef %70, i8 noundef zeroext -16, i32 noundef 18, i32 noundef 4, i32 noundef %71, ptr noundef null)
  %73 = zext i16 %72 to i32
  store i32 %73, ptr %12, align 4
  %74 = icmp ugt i32 %73, 0
  br i1 %74, label %75, label %82

75:                                               ; preds = %67
  %76 = load i32, ptr %12, align 4
  %77 = load i32, ptr %11, align 4
  %78 = add i32 %77, %76
  store i32 %78, ptr %11, align 4
  %79 = load i32, ptr %12, align 4
  %80 = load i32, ptr %13, align 4
  %81 = sub i32 %80, %79
  store i32 %81, ptr %13, align 4
  br label %82

82:                                               ; preds = %75, %67
  %83 = load i32, ptr %13, align 4
  %84 = icmp sle i32 %83, 0
  br i1 %84, label %85, label %86

85:                                               ; preds = %82
  store i32 1, ptr %14, align 4
  br label %198

86:                                               ; preds = %82
  %87 = load ptr, ptr %6, align 8
  %88 = load ptr, ptr %7, align 8
  %89 = load ptr, ptr %8, align 8
  %90 = load i32, ptr %11, align 4
  %91 = load i32, ptr %13, align 4
  %92 = call zeroext i16 @elem_tlv_e(ptr noundef %87, ptr noundef %88, ptr noundef %89, i8 noundef zeroext 120, i32 noundef 16, i32 noundef 3, i32 noundef %90, i32 noundef %91, ptr noundef null)
  %93 = zext i16 %92 to i32
  store i32 %93, ptr %12, align 4
  %94 = icmp ugt i32 %93, 0
  br i1 %94, label %95, label %102

95:                                               ; preds = %86
  %96 = load i32, ptr %12, align 4
  %97 = load i32, ptr %11, align 4
  %98 = add i32 %97, %96
  store i32 %98, ptr %11, align 4
  %99 = load i32, ptr %12, align 4
  %100 = load i32, ptr %13, align 4
  %101 = sub i32 %100, %99
  store i32 %101, ptr %13, align 4
  br label %102

102:                                              ; preds = %95, %86
  %103 = load i32, ptr %13, align 4
  %104 = icmp sle i32 %103, 0
  br i1 %104, label %105, label %106

105:                                              ; preds = %102
  store i32 1, ptr %14, align 4
  br label %198

106:                                              ; preds = %102
  %107 = load ptr, ptr %6, align 8
  %108 = load ptr, ptr %7, align 8
  %109 = load ptr, ptr %8, align 8
  %110 = load i32, ptr %11, align 4
  %111 = load i32, ptr %13, align 4
  %112 = call zeroext i16 @elem_tlv(ptr noundef %107, ptr noundef %108, ptr noundef %109, i8 noundef zeroext 97, i32 noundef 18, i32 noundef 19, i32 noundef %110, i32 noundef %111, ptr noundef null)
  %113 = zext i16 %112 to i32
  store i32 %113, ptr %12, align 4
  %114 = icmp ugt i32 %113, 0
  br i1 %114, label %115, label %122

115:                                              ; preds = %106
  %116 = load i32, ptr %12, align 4
  %117 = load i32, ptr %11, align 4
  %118 = add i32 %117, %116
  store i32 %118, ptr %11, align 4
  %119 = load i32, ptr %12, align 4
  %120 = load i32, ptr %13, align 4
  %121 = sub i32 %120, %119
  store i32 %121, ptr %13, align 4
  br label %122

122:                                              ; preds = %115, %106
  %123 = load i32, ptr %13, align 4
  %124 = icmp sle i32 %123, 0
  br i1 %124, label %125, label %126

125:                                              ; preds = %122
  store i32 1, ptr %14, align 4
  br label %198

126:                                              ; preds = %122
  %127 = load ptr, ptr %6, align 8
  %128 = load ptr, ptr %7, align 8
  %129 = load ptr, ptr %8, align 8
  %130 = load i32, ptr %11, align 4
  %131 = load i32, ptr %13, align 4
  %132 = call zeroext i16 @elem_tlv_e(ptr noundef %127, ptr noundef %128, ptr noundef %129, i8 noundef zeroext 123, i32 noundef 11, i32 noundef 28, i32 noundef %130, i32 noundef %131, ptr noundef null)
  %133 = zext i16 %132 to i32
  store i32 %133, ptr %12, align 4
  %134 = icmp ugt i32 %133, 0
  br i1 %134, label %135, label %142

135:                                              ; preds = %126
  %136 = load i32, ptr %12, align 4
  %137 = load i32, ptr %11, align 4
  %138 = add i32 %137, %136
  store i32 %138, ptr %11, align 4
  %139 = load i32, ptr %12, align 4
  %140 = load i32, ptr %13, align 4
  %141 = sub i32 %140, %139
  store i32 %141, ptr %13, align 4
  br label %142

142:                                              ; preds = %135, %126
  %143 = load i32, ptr %13, align 4
  %144 = icmp sle i32 %143, 0
  br i1 %144, label %145, label %146

145:                                              ; preds = %142
  store i32 1, ptr %14, align 4
  br label %198

146:                                              ; preds = %142
  %147 = load ptr, ptr %6, align 8
  %148 = load ptr, ptr %7, align 8
  %149 = load ptr, ptr %8, align 8
  %150 = load i32, ptr %11, align 4
  %151 = load i32, ptr %13, align 4
  %152 = call zeroext i16 @elem_tlv(ptr noundef %147, ptr noundef %148, ptr noundef %149, i8 noundef zeroext 29, i32 noundef 18, i32 noundef 16, i32 noundef %150, i32 noundef %151, ptr noundef null)
  %153 = zext i16 %152 to i32
  store i32 %153, ptr %12, align 4
  %154 = icmp ugt i32 %153, 0
  br i1 %154, label %155, label %162

155:                                              ; preds = %146
  %156 = load i32, ptr %12, align 4
  %157 = load i32, ptr %11, align 4
  %158 = add i32 %157, %156
  store i32 %158, ptr %11, align 4
  %159 = load i32, ptr %12, align 4
  %160 = load i32, ptr %13, align 4
  %161 = sub i32 %160, %159
  store i32 %161, ptr %13, align 4
  br label %162

162:                                              ; preds = %155, %146
  %163 = load i32, ptr %13, align 4
  %164 = icmp sle i32 %163, 0
  br i1 %164, label %165, label %166

165:                                              ; preds = %162
  store i32 1, ptr %14, align 4
  br label %198

166:                                              ; preds = %162
  %167 = load ptr, ptr %6, align 8
  %168 = load ptr, ptr %7, align 8
  %169 = load ptr, ptr %8, align 8
  %170 = load i32, ptr %11, align 4
  %171 = load i32, ptr %13, align 4
  %172 = call zeroext i16 @elem_tlv_e(ptr noundef %167, ptr noundef %168, ptr noundef %169, i8 noundef zeroext 114, i32 noundef 16, i32 noundef 11, i32 noundef %170, i32 noundef %171, ptr noundef null)
  %173 = zext i16 %172 to i32
  store i32 %173, ptr %12, align 4
  %174 = icmp ugt i32 %173, 0
  br i1 %174, label %175, label %182

175:                                              ; preds = %166
  %176 = load i32, ptr %12, align 4
  %177 = load i32, ptr %11, align 4
  %178 = add i32 %177, %176
  store i32 %178, ptr %11, align 4
  %179 = load i32, ptr %12, align 4
  %180 = load i32, ptr %13, align 4
  %181 = sub i32 %180, %179
  store i32 %181, ptr %13, align 4
  br label %182

182:                                              ; preds = %175, %166
  %183 = load i32, ptr %13, align 4
  %184 = icmp ugt i32 %183, 0
  br i1 %184, label %185, label %197

185:                                              ; preds = %182
  %186 = load ptr, ptr %7, align 8
  %187 = load ptr, ptr %8, align 8
  %188 = load ptr, ptr %6, align 8
  %189 = load i32, ptr %11, align 4
  %190 = load i32, ptr %13, align 4
  %191 = sub i32 %190, 0
  %192 = call ptr @proto_tree_add_expert(ptr noundef %186, ptr noundef %187, ptr noundef @ei_nas_5gs_extraneous_data, ptr noundef %188, i32 noundef %189, i32 noundef %191)
  %193 = load i32, ptr %13, align 4
  %194 = sub i32 %193, 0
  %195 = load i32, ptr %11, align 4
  %196 = add i32 %195, %194
  store i32 %196, ptr %11, align 4
  br label %197

197:                                              ; preds = %185, %182
  store i32 0, ptr %14, align 4
  br label %198

198:                                              ; preds = %197, %165, %145, %125, %105, %85, %66, %46
  call void @llvm.lifetime.end.p0(i64 4, ptr %13) #11
  call void @llvm.lifetime.end.p0(i64 4, ptr %12) #11
  call void @llvm.lifetime.end.p0(i64 4, ptr %11) #11
  %199 = load i32, ptr %14, align 4
  switch i32 %199, label %201 [
    i32 0, label %200
    i32 1, label %200
  ]

200:                                              ; preds = %198, %198
  ret void

201:                                              ; preds = %198
  unreachable
}